target datalayout = "e-m:e-p270:32:32-p271:32:32-p272:64:64-i64:64-i128:128-f80:128-n8:16:32:64-S128"
target triple = "x86_64-pc-linux-gnu"

%class.symbol = type { ptr }
%"class.euf::theory_checker" = type { ptr, %class.scoped_ptr_vector, %class.map }
%class.scoped_ptr_vector = type { %class.ptr_vector }
%class.ptr_vector = type { %class.vector }
%class.vector = type { ptr }
%class.map = type { %class.table2map }
%class.table2map = type { %class.core_hashtable }
%class.core_hashtable = type <{ ptr, i32, i32, i32, [4 x i8] }>
%struct._key_data.160 = type { %class.symbol, ptr }

; Function Attrs: mustprogress uwtable
define linkonce_odr hidden void @_ZN9table2mapI17default_map_entryI6symbolPN3euf21theory_checker_pluginEE16symbol_hash_proc14symbol_eq_procE6insertERKS1_RKS4_(ptr noundef nonnull align 8 dereferenceable(24) %0, ptr noundef nonnull align 8 dereferenceable(8) %1, ptr noundef nonnull align 8 dereferenceable(8) %2) #4 comdat align 2 {
  %4 = alloca ptr, align 8
  %5 = alloca ptr, align 8
  %6 = alloca ptr, align 8
  %7 = alloca %struct._key_data.160, align 8
  store ptr %0, ptr %4, align 8, !tbaa !79
  store ptr %1, ptr %5, align 8, !tbaa !81
  store ptr %2, ptr %6, align 8, !tbaa !83
  %8 = load ptr, ptr %4, align 8
  %9 = getelementptr inbounds nuw %class.table2map, ptr %8, i32 0, i32 0
  call void @llvm.lifetime.start.p0(i64 16, ptr %7) #3
  %10 = getelementptr inbounds nuw %struct._key_data.160, ptr %7, i32 0, i32 0
  %11 = load ptr, ptr %5, align 8, !tbaa !81
  call void @llvm.memcpy.p0.p0.i64(ptr align 8 %10, ptr align 8 %11, i64 8, i1 false), !tbaa.struct !85
  %12 = getelementptr inbounds nuw %struct._key_data.160, ptr %7, i32 0, i32 1
  %13 = load ptr, ptr %6, align 8, !tbaa !83
  %14 = load ptr, ptr %13, align 8, !tbaa !18
  store ptr %14, ptr %12, align 8, !tbaa !87
  call void @_ZN14core_hashtableI17default_map_entryI6symbolPN3euf21theory_checker_pluginEEN9table2mapIS5_16symbol_hash_proc14symbol_eq_procE15entry_hash_procENS9_13entry_eq_procEE6insertEO9_key_dataIS1_S4_E(ptr noundef nonnull align 8 dereferenceable(20) %9, ptr noundef nonnull align 8 dereferenceable(16) %7)
  call void @llvm.lifetime.end.p0(i64 16, ptr %7) #3
  ret void
}

; Function Attrs: mustprogress uwtable
define hidden void @_ZN3euf14theory_checker15register_pluginERK6symbolPNS_21theory_checker_pluginE(ptr noundef nonnull align 8 dereferenceable(40) %0, ptr noundef nonnull align 8 dereferenceable(8) %1, ptr noundef %2) #4 align 2 {
  %4 = alloca ptr, align 8
  %5 = alloca ptr, align 8
  %6 = alloca ptr, align 8
  store ptr %0, ptr %4, align 8, !tbaa !3
  store ptr %1, ptr %5, align 8, !tbaa !81
  store ptr %2, ptr %6, align 8, !tbaa !18
  %7 = load ptr, ptr %4, align 8
  %8 = getelementptr inbounds nuw %"class.euf::theory_checker", ptr %7, i32 0, i32 2
  %9 = load ptr, ptr %5, align 8, !tbaa !81
  call void @_ZN9table2mapI17default_map_entryI6symbolPN3euf21theory_checker_pluginEE16symbol_hash_proc14symbol_eq_procE6insertERKS1_RKS4_(ptr noundef nonnull align 8 dereferenceable(24) %8, ptr noundef nonnull align 8 dereferenceable(8) %9, ptr noundef nonnull align 8 dereferenceable(8) %6)
  ret void
}