; Function Attrs: mustprogress uwtable
define hidden void @_ZN3euf14theory_checker15register_pluginERK6symbolPNS_21theory_checker_pluginE(ptr noundef nonnull align 8 dereferenceable(40) %0, ptr noundef nonnull readonly align 8 captures(none) dereferenceable(8) %1, ptr noundef %2) local_unnamed_addr #3 align 2 {
  %4 = alloca %struct._key_data.160, align 8
  %5 = getelementptr inbounds nuw i8, ptr %0, i64 16
  call void @llvm.lifetime.start.p0(i64 16, ptr nonnull %4) #21
  %6 = load i64, ptr %1, align 8, !tbaa !28
  store i64 %6, ptr %4, align 8, !tbaa !28
  %7 = getelementptr inbounds nuw i8, ptr %4, i64 8
  store ptr %2, ptr %7, align 8, !tbaa !30
  call void @_ZN14core_hashtableI17default_map_entryI6symbolPN3euf21theory_checker_pluginEEN9table2mapIS5_16symbol_hash_proc14symbol_eq_procE15entry_hash_procENS9_13entry_eq_procEE6insertEO9_key_dataIS1_S4_E(ptr noundef nonnull align 8 dereferenceable(24) %5, ptr noundef nonnull align 8 dereferenceable(16) %4)
  call void @llvm.lifetime.end.p0(i64 16, ptr nonnull %4) #21
  ret void
}